target datalayout = "e-m:e-p270:32:32-p271:32:32-p272:64:64-i64:64-i128:128-f80:128-n8:16:32:64-S128"
target triple = "x86_64-pc-linux-gnu"

%struct.__va_list_tag = type { i32, i32, ptr, ptr }

@.str.3 = private unnamed_addr constant [8 x i8] c"usage.c\00", align 1
@.str.12 = private unnamed_addr constant [8 x i8] c"usage: \00", align 1
@stdout = external global ptr, align 8

; Function Attrs: nounwind uwtable
define internal void @show_usage_if_asked_helper(ptr noundef %0, ...) #0 {
  %2 = alloca ptr, align 8
  %3 = alloca [1 x %struct.__va_list_tag], align 16
  store ptr %0, ptr %2, align 8, !tbaa !8
  call void @llvm.lifetime.start.p0(i64 24, ptr %3) #11
  %4 = getelementptr inbounds [1 x %struct.__va_list_tag], ptr %3, i64 0, i64 0
  call void @llvm.va_start.p0(ptr %4)
  %5 = load ptr, ptr @stdout, align 8, !tbaa !14
  %6 = call ptr @_(ptr noundef @.str.12)
  %7 = load ptr, ptr %2, align 8, !tbaa !8
  %8 = getelementptr inbounds [1 x %struct.__va_list_tag], ptr %3, i64 0, i64 0
  call void @vfreportf(ptr noundef %5, ptr noundef %6, ptr noundef %7, ptr noundef %8)
  %9 = getelementptr inbounds [1 x %struct.__va_list_tag], ptr %3, i64 0, i64 0
  call void @llvm.va_end.p0(ptr %9)
  %10 = call i32 @common_exit(ptr noundef @.str.3, i32 noundef 188, i32 noundef 129)
  call void @exit(i32 noundef %10) #14
  unreachable
}