; Function Attrs: noreturn nounwind uwtable
define internal void @show_usage_if_asked_helper(ptr noundef %0, ...) unnamed_addr #3 {
  %2 = alloca [1 x %struct.__va_list_tag], align 16
  call void @llvm.lifetime.start.p0(i64 24, ptr nonnull %2) #17
  call void @llvm.va_start.p0(ptr nonnull %2)
  %3 = load ptr, ptr @stdout, align 8, !tbaa !10
  %4 = call fastcc ptr @_(ptr noundef nonnull @.str.12)
  call fastcc void @vfreportf(ptr noundef %3, ptr noundef %4, ptr noundef %0, ptr noundef nonnull %2)
  call void @llvm.va_end.p0(ptr nonnull %2)
  %5 = call i32 @common_exit(ptr noundef nonnull @.str.3, i32 noundef 188, i32 noundef 129) #17
  call void @exit(i32 noundef %5) #19
  unreachable
}